(lp0
(lp1
S'web-documents\\computer-science-software-engineering\\about\\faculty.html'
p2
aF0.3682298471593294
aa(lp3
S'web-documents\\computer-science-software-engineering\\about\\jobs.html'
p4
aF1.3568331395504662
aa(lp5
S'web-documents\\computer-science-software-engineering\\about\\staff.html'
p6
aF1.0690449676496976
aa(lp7
S'web-documents\\computer-science-software-engineering\\about.html'
p8
aF1.0585122480499263
aa(lp9
S'web-documents\\computer-science-software-engineering\\contact.html'
p10
aF0.5345224838248488
aa(lp11
S'web-documents\\computer-science-software-engineering\\cuevents\\main\\2014\\11\\17\\cinema-politica-moug.html'
p12
aF0.8206945344647689
aa(lp13
S'web-documents\\computer-science-software-engineering\\cuevents\\main\\2015\\01\\31\\speculations-risquer-linterpretation.html'
p14
aF0.2857142857142857
aa(lp15
S'web-documents\\computer-science-software-engineering\\cunews\\encs\\computer-science\\theses\\2014\\10\\14\\master-defense-nitin-prajpani.html'
p16
aF0.3581511570676556
aa(lp17
S'web-documents\\computer-science-software-engineering\\cunews\\encs\\computer-science\\theses\\2014\\10\\29\\reem-alnanih-thesis-defense.html'
p18
aF0.5598852584152164
aa(lp19
S'web-documents\\computer-science-software-engineering\\cunews\\encs\\computer-science\\theses\\2014\\11\\24\\puspal-bhabak-thesis-defense.html'
p20
aF0.2873478855663454
aa(lp21
S'web-documents\\computer-science-software-engineering\\news\\notices.html'
p22
aF1.003100782635635
aa(lp23
S'web-documents\\computer-science-software-engineering\\news\\notices.html.html'
p24
aF1.003100782635635
aa(lp25
S'web-documents\\computer-science-software-engineering\\news.html'
p26
aF1.203786441362082
aa(lp27
S'web-documents\\computer-science-software-engineering\\programs\\graduate.html'
p28
aF1.1446713662390753
aa(lp29
S'web-documents\\computer-science-software-engineering\\programs\\undergraduate.html'
p30
aF0.5643326479831003
aa(lp31
S'web-documents\\computer-science-software-engineering\\programs.html'
p32
aF0.5792844463634923
aa(lp33
S'web-documents\\computer-science-software-engineering\\research\\centre.html'
p34
aF1.8777894154716992
aa(lp35
S'web-documents\\computer-science-software-engineering\\research\\grants-funding.html'
p36
aF1.2941176470588236
aa(lp37
S'web-documents\\computer-science-software-engineering\\research\\groups.html'
p38
aF0.6287677132370127
aa(lp39
S'web-documents\\computer-science-software-engineering\\research\\industry-sponsors.html'
p40
aF1.3838403680721085
aa(lp41
S'web-documents\\computer-science-software-engineering\\research\\visiting-researchers.html'
p42
aF0.7660323462854266
aa(lp43
S'web-documents\\computer-science-software-engineering\\research.html'
p44
aF0.6052275326688025
aa(lp45
S'web-documents\\computer-science-software-engineering\\services-facilities.html'
p46
aF0.6451791670811046
aa(lp47
S'web-documents\\computer-science-software-engineering\\student-life\\student-association.html'
p48
aF1.0034188133917428
aa(lp49
S'web-documents\\computer-science-software-engineering\\student-life.html'
p50
aF0.6495698024616309
aa(lp51
S'web-documents\\computer-science-software-engineering\\students.html'
p52
aF0.9111851088461804
aa.